; Function Attrs: inlinehint nounwind uwtable
define internal fastcc range(i32 -32, 1) i32 @pmix_bfrops_base_tma_copy_coord(ptr noundef nonnull writeonly captures(none) %0, ptr noundef readonly captures(none) %1, ptr noundef %2) unnamed_addr #4 {
  %.not.i = icmp eq ptr %2, null
  br i1 %.not.i, label %7, label %4

4:                                                ; preds = %3
  %5 = load ptr, ptr %2, align 8, !tbaa !39
  %6 = tail call ptr %5(ptr noundef nonnull %2, i64 noundef 24) #17
  br label %pmix_tma_malloc.exit

7:                                                ; preds = %3
  %8 = tail call noalias dereferenceable_or_null(24) ptr @malloc(i64 noundef 24) #18
  br label %pmix_tma_malloc.exit

pmix_tma_malloc.exit:                             ; preds = %4, %7
  %.0.i = phi ptr [ %6, %4 ], [ %8, %7 ]
  %9 = icmp eq ptr %.0.i, null
  br i1 %9, label %pmix_tma_free.exit, label %10, !prof !29

10:                                               ; preds = %pmix_tma_malloc.exit
  store i8 0, ptr %.0.i, align 8, !tbaa !106
  %11 = getelementptr inbounds nuw i8, ptr %.0.i, i64 8
  tail call void @llvm.memset.p0.i64(ptr noundef nonnull align 8 dereferenceable(16) %11, i8 0, i64 16, i1 false)
  %12 = load i8, ptr %1, align 8, !tbaa !106
  store i8 %12, ptr %.0.i, align 8, !tbaa !106
  %13 = getelementptr inbounds nuw i8, ptr %1, i64 16
  %14 = load i64, ptr %13, align 8, !tbaa !238
  %15 = getelementptr inbounds nuw i8, ptr %.0.i, i64 16
  store i64 %14, ptr %15, align 8, !tbaa !238
  %.not.i16 = icmp eq i64 %14, 0
  br i1 %.not.i16, label %30, label %16

16:                                               ; preds = %10
  %17 = shl i64 %14, 2
  br i1 %.not.i, label %pmix_tma_malloc.exit.i, label %pmix_tma_malloc.exit.i.thread

pmix_tma_malloc.exit.i:                           ; preds = %16
  %18 = tail call noalias ptr @malloc(i64 noundef %17) #18
  store ptr %18, ptr %11, align 8, !tbaa !109
  %19 = icmp eq ptr %18, null
  br i1 %19, label %29, label %23, !prof !29

pmix_tma_malloc.exit.i.thread:                    ; preds = %16
  %20 = load ptr, ptr %2, align 8, !tbaa !39
  %21 = tail call ptr %20(ptr noundef nonnull %2, i64 noundef %17) #17
  store ptr %21, ptr %11, align 8, !tbaa !109
  %22 = icmp eq ptr %21, null
  br i1 %22, label %26, label %pmix_tma_malloc.exit.i.thread._crit_edge, !prof !29

pmix_tma_malloc.exit.i.thread._crit_edge:         ; preds = %pmix_tma_malloc.exit.i.thread
  %.pre = load i64, ptr %15, align 8, !tbaa !238
  %.pre28 = shl i64 %.pre, 2
  br label %23

23:                                               ; preds = %pmix_tma_malloc.exit.i.thread._crit_edge, %pmix_tma_malloc.exit.i
  %.pre-phi = phi i64 [ %.pre28, %pmix_tma_malloc.exit.i.thread._crit_edge ], [ %17, %pmix_tma_malloc.exit.i ]
  %.0.i.i23 = phi ptr [ %21, %pmix_tma_malloc.exit.i.thread._crit_edge ], [ %18, %pmix_tma_malloc.exit.i ]
  %24 = getelementptr inbounds nuw i8, ptr %1, i64 8
  %25 = load ptr, ptr %24, align 8, !tbaa !109
  tail call void @llvm.memcpy.p0.p0.i64(ptr nonnull align 4 %.0.i.i23, ptr align 4 %25, i64 %.pre-phi, i1 false)
  br label %30

26:                                               ; preds = %pmix_tma_malloc.exit.i.thread
  tail call fastcc void @pmix_bfrops_base_tma_coord_destruct(ptr noundef %.0.i, ptr noundef nonnull %2)
  %27 = getelementptr inbounds nuw i8, ptr %2, i64 40
  %28 = load ptr, ptr %27, align 8, !tbaa !38
  tail call void %28(ptr noundef nonnull %2, ptr noundef nonnull %.0.i) #17
  br label %pmix_tma_free.exit

29:                                               ; preds = %pmix_tma_malloc.exit.i
  tail call fastcc void @pmix_bfrops_base_tma_coord_destruct(ptr noundef %.0.i, ptr noundef null)
  tail call void @free(ptr noundef nonnull %.0.i) #17
  br label %pmix_tma_free.exit

30:                                               ; preds = %23, %10
  store ptr %.0.i, ptr %0, align 8, !tbaa !291
  br label %pmix_tma_free.exit

pmix_tma_free.exit:                               ; preds = %29, %26, %30, %pmix_tma_malloc.exit
  %.0 = phi i32 [ -32, %pmix_tma_malloc.exit ], [ 0, %30 ], [ -32, %26 ], [ -32, %29 ]
  ret i32 %.0
}